target datalayout = "e-m:e-p270:32:32-p271:32:32-p272:64:64-i64:64-i128:128-f80:128-n8:16:32:64-S128"
target triple = "x86_64-pc-linux-gnu"

%struct.SDL_Process = type { i8, i8, i32, i32, ptr }

@.str.22 = private unnamed_addr constant [18 x i8] c"SDL.process.stdin\00", align 1
@.str.24 = private unnamed_addr constant [19 x i8] c"SDL.process.stdout\00", align 1
@.str.25 = private unnamed_addr constant [19 x i8] c"SDL.process.stderr\00", align 1

; Function Attrs: nounwind uwtable
define hidden void @SDL_SYS_DestroyProcess(ptr noundef %0) #0 {
  %2 = alloca ptr, align 8
  %3 = alloca ptr, align 8
  store ptr %0, ptr %2, align 8
  call void @llvm.lifetime.start.p0(i64 8, ptr %3) #9
  %4 = load ptr, ptr %2, align 8
  %5 = getelementptr inbounds nuw %struct.SDL_Process, ptr %4, i32 0, i32 3
  %6 = load i32, ptr %5, align 8
  %7 = call ptr @SDL_GetPointerProperty_REAL(i32 noundef %6, ptr noundef @.str.22, ptr noundef null)
  store ptr %7, ptr %3, align 8
  %8 = load ptr, ptr %3, align 8
  %9 = icmp ne ptr %8, null
  br i1 %9, label %10, label %13

10:                                               ; preds = %1
  %11 = load ptr, ptr %3, align 8
  %12 = call zeroext i1 @SDL_CloseIO_REAL(ptr noundef %11)
  br label %13

13:                                               ; preds = %10, %1
  %14 = load ptr, ptr %2, align 8
  %15 = getelementptr inbounds nuw %struct.SDL_Process, ptr %14, i32 0, i32 3
  %16 = load i32, ptr %15, align 8
  %17 = call ptr @SDL_GetPointerProperty_REAL(i32 noundef %16, ptr noundef @.str.24, ptr noundef null)
  store ptr %17, ptr %3, align 8
  %18 = load ptr, ptr %3, align 8
  %19 = icmp ne ptr %18, null
  br i1 %19, label %20, label %23

20:                                               ; preds = %13
  %21 = load ptr, ptr %3, align 8
  %22 = call zeroext i1 @SDL_CloseIO_REAL(ptr noundef %21)
  br label %23

23:                                               ; preds = %20, %13
  %24 = load ptr, ptr %2, align 8
  %25 = getelementptr inbounds nuw %struct.SDL_Process, ptr %24, i32 0, i32 3
  %26 = load i32, ptr %25, align 8
  %27 = call ptr @SDL_GetPointerProperty_REAL(i32 noundef %26, ptr noundef @.str.25, ptr noundef null)
  store ptr %27, ptr %3, align 8
  %28 = load ptr, ptr %3, align 8
  %29 = icmp ne ptr %28, null
  br i1 %29, label %30, label %33

30:                                               ; preds = %23
  %31 = load ptr, ptr %3, align 8
  %32 = call zeroext i1 @SDL_CloseIO_REAL(ptr noundef %31)
  br label %33

33:                                               ; preds = %30, %23
  %34 = load ptr, ptr %2, align 8
  %35 = getelementptr inbounds nuw %struct.SDL_Process, ptr %34, i32 0, i32 4
  %36 = load ptr, ptr %35, align 8
  call void @SDL_free_REAL(ptr noundef %36)
  call void @llvm.lifetime.end.p0(i64 8, ptr %3) #9
  ret void
}