; Function Attrs: nounwind uwtable
define hidden void @SDL_SYS_DestroyProcess(ptr noundef readonly captures(none) %0) local_unnamed_addr #0 {
  %2 = getelementptr inbounds nuw i8, ptr %0, i64 8
  %3 = load i32, ptr %2, align 8
  %4 = tail call ptr @SDL_GetPointerProperty_REAL(i32 noundef %3, ptr noundef nonnull @.str.22, ptr noundef null) #10
  %.not = icmp eq ptr %4, null
  br i1 %.not, label %7, label %5

5:                                                ; preds = %1
  %6 = tail call zeroext i1 @SDL_CloseIO_REAL(ptr noundef nonnull %4) #10
  br label %7

7:                                                ; preds = %5, %1
  %8 = load i32, ptr %2, align 8
  %9 = tail call ptr @SDL_GetPointerProperty_REAL(i32 noundef %8, ptr noundef nonnull @.str.24, ptr noundef null) #10
  %.not12 = icmp eq ptr %9, null
  br i1 %.not12, label %12, label %10

10:                                               ; preds = %7
  %11 = tail call zeroext i1 @SDL_CloseIO_REAL(ptr noundef nonnull %9) #10
  br label %12

12:                                               ; preds = %10, %7
  %13 = load i32, ptr %2, align 8
  %14 = tail call ptr @SDL_GetPointerProperty_REAL(i32 noundef %13, ptr noundef nonnull @.str.25, ptr noundef null) #10
  %.not13 = icmp eq ptr %14, null
  br i1 %.not13, label %17, label %15

15:                                               ; preds = %12
  %16 = tail call zeroext i1 @SDL_CloseIO_REAL(ptr noundef nonnull %14) #10
  br label %17

17:                                               ; preds = %15, %12
  %18 = getelementptr inbounds nuw i8, ptr %0, i64 16
  %19 = load ptr, ptr %18, align 8
  tail call void @SDL_free_REAL(ptr noundef %19) #10
  ret void
}